target datalayout = "e-m:e-p270:32:32-p271:32:32-p272:64:64-i64:64-i128:128-f80:128-n8:16:32:64-S128"
target triple = "x86_64-pc-linux-gnu"

; Function Attrs: mustprogress uwtable
define noundef ptr @_Z11GetWideNamePKcPKwPwm(ptr noundef %0, ptr noundef %1, ptr noundef %2, i64 noundef %3) #0 {
  %5 = alloca ptr, align 8
  %6 = alloca ptr, align 8
  %7 = alloca ptr, align 8
  %8 = alloca i64, align 8
  store ptr %0, ptr %5, align 8
  store ptr %1, ptr %6, align 8
  store ptr %2, ptr %7, align 8
  store i64 %3, ptr %8, align 8
  %9 = load ptr, ptr %6, align 8
  %10 = icmp ne ptr %9, null
  br i1 %10, label %11, label %25

11:                                               ; preds = %4
  %12 = load ptr, ptr %6, align 8
  %13 = load i32, ptr %12, align 4
  %14 = icmp ne i32 %13, 0
  br i1 %14, label %15, label %25

15:                                               ; preds = %11
  %16 = load ptr, ptr %7, align 8
  %17 = load ptr, ptr %6, align 8
  %18 = icmp ne ptr %16, %17
  br i1 %18, label %19, label %24

19:                                               ; preds = %15
  %20 = load ptr, ptr %7, align 8
  %21 = load ptr, ptr %6, align 8
  %22 = load i64, ptr %8, align 8
  %23 = call ptr @wcsncpy(ptr noundef %20, ptr noundef %21, i64 noundef %22) #7
  br label %24

24:                                               ; preds = %19, %15
  br label %36

25:                                               ; preds = %11, %4
  %26 = load ptr, ptr %5, align 8
  %27 = icmp ne ptr %26, null
  br i1 %27, label %28, label %33

28:                                               ; preds = %25
  %29 = load ptr, ptr %5, align 8
  %30 = load ptr, ptr %7, align 8
  %31 = load i64, ptr %8, align 8
  %32 = call noundef zeroext i1 @_Z10CharToWidePKcPwm(ptr noundef %29, ptr noundef %30, i64 noundef %31)
  br label %35

33:                                               ; preds = %25
  %34 = load ptr, ptr %7, align 8
  store i32 0, ptr %34, align 4
  br label %35

35:                                               ; preds = %33, %28
  br label %36

36:                                               ; preds = %35, %24
  %37 = load i64, ptr %8, align 8
  %38 = icmp ugt i64 %37, 0
  br i1 %38, label %39, label %44

39:                                               ; preds = %36
  %40 = load ptr, ptr %7, align 8
  %41 = load i64, ptr %8, align 8
  %42 = sub i64 %41, 1
  %43 = getelementptr inbounds i32, ptr %40, i64 %42
  store i32 0, ptr %43, align 4
  br label %44

44:                                               ; preds = %39, %36
  %45 = load ptr, ptr %7, align 8
  ret ptr %45
}