; Function Attrs: mustprogress uwtable
define noundef ptr @_Z11GetWideNamePKcPKwPwm(ptr noundef %0, ptr noundef %1, ptr noundef returned %2, i64 noundef %3) local_unnamed_addr #3 {
  %.not = icmp eq ptr %1, null
  br i1 %.not, label %10, label %5

5:                                                ; preds = %4
  %6 = load i32, ptr %1, align 4
  %.not18 = icmp eq i32 %6, 0
  br i1 %.not18, label %10, label %7

7:                                                ; preds = %5
  %.not20 = icmp eq ptr %2, %1
  br i1 %.not20, label %14, label %8

8:                                                ; preds = %7
  %9 = tail call ptr @wcsncpy(ptr noundef %2, ptr noundef nonnull %1, i64 noundef %3) #19
  br label %14

10:                                               ; preds = %5, %4
  %.not19 = icmp eq ptr %0, null
  br i1 %.not19, label %13, label %11

11:                                               ; preds = %10
  %12 = tail call noundef zeroext i1 @_Z10CharToWidePKcPwm(ptr noundef nonnull %0, ptr noundef %2, i64 noundef %3)
  br label %14

13:                                               ; preds = %10
  store i32 0, ptr %2, align 4
  br label %14

14:                                               ; preds = %11, %13, %7, %8
  %.not21 = icmp eq i64 %3, 0
  br i1 %.not21, label %18, label %15

15:                                               ; preds = %14
  %16 = getelementptr i32, ptr %2, i64 %3
  %17 = getelementptr i8, ptr %16, i64 -4
  store i32 0, ptr %17, align 4
  br label %18

18:                                               ; preds = %15, %14
  ret ptr %2
}